target datalayout = "e-m:e-p270:32:32-p271:32:32-p272:64:64-i64:64-i128:128-f80:128-n8:16:32:64-S128"
target triple = "x86_64-pc-linux-gnu"

%"class.datalog::table_signature" = type <{ %"class.datalog::tr_infrastructure<datalog::table_traits>::signature_base", i32, [4 x i8] }>
%"class.datalog::tr_infrastructure<datalog::table_traits>::signature_base" = type { %class.svector }
%class.svector = type { %class.vector }
%class.vector = type { ptr }
%"class.datalog::tr_infrastructure<datalog::table_traits>::base_ancestor" = type <{ ptr, ptr, %"class.datalog::table_signature", i32, [4 x i8] }>
%"class.datalog::tr_infrastructure<datalog::table_traits>::base_fn" = type { ptr }
%class.svector.0 = type { %class.vector.1 }
%class.vector.1 = type { ptr }
%"class.datalog::tr_infrastructure<datalog::table_traits>::convenient_project_fn" = type { %"class.datalog::tr_infrastructure<datalog::table_traits>::convenient_transformer_fn", %class.svector.0 }
%"class.datalog::tr_infrastructure<datalog::table_traits>::convenient_transformer_fn" = type { %"class.datalog::tr_infrastructure<datalog::table_traits>::transformer_fn", %"class.datalog::table_signature" }
%"class.datalog::tr_infrastructure<datalog::table_traits>::transformer_fn" = type { %"class.datalog::tr_infrastructure<datalog::table_traits>::base_fn" }

; Function Attrs: mustprogress nounwind uwtable
define linkonce_odr hidden void @_ZN6vectorImLb0EjEC2Ev(ptr noundef nonnull align 8 dereferenceable(8) %0) unnamed_addr #7 comdat align 2 {
  %2 = alloca ptr, align 8
  store ptr %0, ptr %2, align 8, !tbaa !150
  %3 = load ptr, ptr %2, align 8
  %4 = getelementptr inbounds nuw %class.vector, ptr %3, i32 0, i32 0
  store ptr null, ptr %4, align 8, !tbaa !154
  ret void
}

; Function Attrs: mustprogress nounwind uwtable
define linkonce_odr hidden void @_ZN7svectorImjEC2Ev(ptr noundef nonnull align 8 dereferenceable(8) %0) unnamed_addr #7 comdat align 2 {
  %2 = alloca ptr, align 8
  store ptr %0, ptr %2, align 8, !tbaa !89
  %3 = load ptr, ptr %2, align 8
  call void @_ZN6vectorImLb0EjEC2Ev(ptr noundef nonnull align 8 dereferenceable(8) %3) #3
  ret void
}

; Function Attrs: mustprogress uwtable
define linkonce_odr hidden noundef nonnull align 8 dereferenceable(8) ptr @_ZN6vectorIjLb0EjE9push_backERKj(ptr noundef nonnull align 8 dereferenceable(8) %0, ptr noundef nonnull align 4 dereferenceable(4) %1) #4 comdat align 2 {
  %3 = alloca ptr, align 8
  %4 = alloca ptr, align 8
  store ptr %0, ptr %3, align 8, !tbaa !102
  store ptr %1, ptr %4, align 8, !tbaa !44
  %5 = load ptr, ptr %3, align 8
  %6 = getelementptr inbounds nuw %class.vector.1, ptr %5, i32 0, i32 0
  %7 = load ptr, ptr %6, align 8, !tbaa !104
  %8 = icmp eq ptr %7, null
  br i1 %8, label %19, label %9

9:                                                ; preds = %2
  %10 = getelementptr inbounds nuw %class.vector.1, ptr %5, i32 0, i32 0
  %11 = load ptr, ptr %10, align 8, !tbaa !104
  %12 = getelementptr inbounds i32, ptr %11, i64 -1
  %13 = load i32, ptr %12, align 4, !tbaa !43
  %14 = getelementptr inbounds nuw %class.vector.1, ptr %5, i32 0, i32 0
  %15 = load ptr, ptr %14, align 8, !tbaa !104
  %16 = getelementptr inbounds i32, ptr %15, i64 -2
  %17 = load i32, ptr %16, align 4, !tbaa !43
  %18 = icmp eq i32 %13, %17
  br i1 %18, label %19, label %20

19:                                               ; preds = %9, %2
  call void @_ZN6vectorIjLb0EjE13expand_vectorEv(ptr noundef nonnull align 8 dereferenceable(8) %5)
  br label %20

20:                                               ; preds = %19, %9
  %21 = getelementptr inbounds nuw %class.vector.1, ptr %5, i32 0, i32 0
  %22 = load ptr, ptr %21, align 8, !tbaa !104
  %23 = getelementptr inbounds nuw %class.vector.1, ptr %5, i32 0, i32 0
  %24 = load ptr, ptr %23, align 8, !tbaa !104
  %25 = getelementptr inbounds i32, ptr %24, i64 -1
  %26 = load i32, ptr %25, align 4, !tbaa !43
  %27 = zext i32 %26 to i64
  %28 = getelementptr inbounds nuw i32, ptr %22, i64 %27
  %29 = load ptr, ptr %4, align 8, !tbaa !44
  %30 = load i32, ptr %29, align 4, !tbaa !43
  store i32 %30, ptr %28, align 4, !tbaa !43
  %31 = getelementptr inbounds nuw %class.vector.1, ptr %5, i32 0, i32 0
  %32 = load ptr, ptr %31, align 8, !tbaa !104
  %33 = getelementptr inbounds i32, ptr %32, i64 -1
  %34 = load i32, ptr %33, align 4, !tbaa !43
  %35 = add i32 %34, 1
  store i32 %35, ptr %33, align 4, !tbaa !43
  ret ptr %5
}

; Function Attrs: inlinehint mustprogress nounwind uwtable
define linkonce_odr hidden void @_ZN7datalog17tr_infrastructureINS_12table_traitsEE14signature_baseC2Ev(ptr noundef nonnull align 8 dereferenceable(8) %0) unnamed_addr #11 comdat align 2 {
  %2 = alloca ptr, align 8
  store ptr %0, ptr %2, align 8, !tbaa !152
  %3 = load ptr, ptr %2, align 8
  call void @_ZN7svectorImjEC2Ev(ptr noundef nonnull align 8 dereferenceable(8) %3) #3
  ret void
}

; Function Attrs: mustprogress nounwind uwtable
define linkonce_odr hidden void @_ZN7datalog17tr_infrastructureINS_12table_traitsEE7base_fnC2Ev(ptr noundef nonnull align 8 dereferenceable(8) %0) unnamed_addr #7 comdat align 2 {
  %2 = alloca ptr, align 8
  store ptr %0, ptr %2, align 8, !tbaa !164
  %3 = load ptr, ptr %2, align 8
  store ptr getelementptr inbounds inrange(-16, 16) ({ [4 x ptr] }, ptr @_ZTVN7datalog17tr_infrastructureINS_12table_traitsEE7base_fnE, i32 0, i32 0, i32 2), ptr %3, align 8, !tbaa !13
  ret void
}

; Function Attrs: mustprogress uwtable
define linkonce_odr hidden void @_ZN6vectorIjLb0EjEC2EjPKj(ptr noundef nonnull align 8 dereferenceable(8) %0, i32 noundef %1, ptr noundef %2) unnamed_addr #4 comdat align 2 {
  %4 = alloca ptr, align 8
  %5 = alloca i32, align 4
  %6 = alloca ptr, align 8
  %7 = alloca i32, align 4
  store ptr %0, ptr %4, align 8, !tbaa !102
  store i32 %1, ptr %5, align 4, !tbaa !43
  store ptr %2, ptr %6, align 8, !tbaa !44
  %8 = load ptr, ptr %4, align 8
  %9 = getelementptr inbounds nuw %class.vector.1, ptr %8, i32 0, i32 0
  store ptr null, ptr %9, align 8, !tbaa !104
  call void @llvm.lifetime.start.p0(i64 4, ptr %7) #3
  store i32 0, ptr %7, align 4, !tbaa !43
  br label %10

10:                                               ; preds = %21, %3
  %11 = load i32, ptr %7, align 4, !tbaa !43
  %12 = load i32, ptr %5, align 4, !tbaa !43
  %13 = icmp ult i32 %11, %12
  br i1 %13, label %15, label %14

14:                                               ; preds = %10
  call void @llvm.lifetime.end.p0(i64 4, ptr %7) #3
  br label %24

15:                                               ; preds = %10
  %16 = load ptr, ptr %6, align 8, !tbaa !44
  %17 = load i32, ptr %7, align 4, !tbaa !43
  %18 = zext i32 %17 to i64
  %19 = getelementptr inbounds nuw i32, ptr %16, i64 %18
  %20 = call noundef nonnull align 8 dereferenceable(8) ptr @_ZN6vectorIjLb0EjE9push_backERKj(ptr noundef nonnull align 8 dereferenceable(8) %8, ptr noundef nonnull align 4 dereferenceable(4) %19)
  br label %21

21:                                               ; preds = %15
  %22 = load i32, ptr %7, align 4, !tbaa !43
  %23 = add i32 %22, 1
  store i32 %23, ptr %7, align 4, !tbaa !43
  br label %10, !llvm.loop !166

24:                                               ; preds = %14
  ret void
}

; Function Attrs: mustprogress nounwind uwtable
define linkonce_odr hidden void @_ZN7datalog17tr_infrastructureINS_12table_traitsEE7base_fnD2Ev(ptr noundef nonnull align 8 dereferenceable(8) %0) unnamed_addr #7 comdat align 2 {
  %2 = alloca ptr, align 8
  store ptr %0, ptr %2, align 8, !tbaa !164
  ret void
}

; Function Attrs: mustprogress nounwind uwtable
define linkonce_odr hidden void @_ZN7datalog15table_signatureC2Ev(ptr noundef nonnull align 8 dereferenceable(12) %0) unnamed_addr #7 comdat align 2 {
  %2 = alloca ptr, align 8
  store ptr %0, ptr %2, align 8, !tbaa !27
  %3 = load ptr, ptr %2, align 8
  call void @_ZN7datalog17tr_infrastructureINS_12table_traitsEE14signature_baseC2Ev(ptr noundef nonnull align 8 dereferenceable(8) %3) #3
  %4 = getelementptr inbounds nuw %"class.datalog::table_signature", ptr %3, i32 0, i32 1
  store i32 0, ptr %4, align 8, !tbaa !149
  ret void
}

; Function Attrs: inlinehint mustprogress nounwind uwtable
define linkonce_odr hidden void @_ZN7datalog17tr_infrastructureINS_12table_traitsEE14transformer_fnC2Ev(ptr noundef nonnull align 8 dereferenceable(8) %0) unnamed_addr #11 comdat align 2 {
  %2 = alloca ptr, align 8
  store ptr %0, ptr %2, align 8, !tbaa !113
  %3 = load ptr, ptr %2, align 8
  call void @_ZN7datalog17tr_infrastructureINS_12table_traitsEE7base_fnC2Ev(ptr noundef nonnull align 8 dereferenceable(8) %3) #3
  store ptr getelementptr inbounds inrange(-16, 24) ({ [5 x ptr] }, ptr @_ZTVN7datalog17tr_infrastructureINS_12table_traitsEE14transformer_fnE, i32 0, i32 0, i32 2), ptr %3, align 8, !tbaa !13
  ret void
}

; Function Attrs: mustprogress nounwind uwtable
define linkonce_odr hidden noundef nonnull align 8 dereferenceable(12) ptr @_ZN7datalog17tr_infrastructureINS_12table_traitsEE25convenient_transformer_fn20get_result_signatureEv(ptr noundef nonnull align 8 dereferenceable(24) %0) #7 comdat align 2 {
  %2 = alloca ptr, align 8
  store ptr %0, ptr %2, align 8, !tbaa !188
  %3 = load ptr, ptr %2, align 8
  %4 = getelementptr inbounds nuw %"class.datalog::tr_infrastructure<datalog::table_traits>::convenient_transformer_fn", ptr %3, i32 0, i32 1
  ret ptr %4
}

; Function Attrs: mustprogress uwtable
define linkonce_odr hidden void @_ZN7svectorIjjEC2EjPKj(ptr noundef nonnull align 8 dereferenceable(8) %0, i32 noundef %1, ptr noundef %2) unnamed_addr #4 comdat align 2 {
  %4 = alloca ptr, align 8
  %5 = alloca i32, align 4
  %6 = alloca ptr, align 8
  store ptr %0, ptr %4, align 8, !tbaa !117
  store i32 %1, ptr %5, align 4, !tbaa !43
  store ptr %2, ptr %6, align 8, !tbaa !44
  %7 = load ptr, ptr %4, align 8
  %8 = load i32, ptr %5, align 4, !tbaa !43
  %9 = load ptr, ptr %6, align 8, !tbaa !44
  call void @_ZN6vectorIjLb0EjEC2EjPKj(ptr noundef nonnull align 8 dereferenceable(8) %7, i32 noundef %8, ptr noundef %9)
  ret void
}

; Function Attrs: inlinehint mustprogress uwtable
define linkonce_odr hidden void @_ZN7datalog17tr_infrastructureINS_12table_traitsEE25convenient_transformer_fnC2Ev(ptr noundef nonnull align 8 dereferenceable(24) %0) unnamed_addr #6 comdat align 2 personality ptr @__gxx_personality_v0 {
  %2 = alloca ptr, align 8
  %3 = alloca ptr, align 8
  %4 = alloca i32, align 4
  store ptr %0, ptr %2, align 8, !tbaa !188
  %5 = load ptr, ptr %2, align 8
  call void @_ZN7datalog17tr_infrastructureINS_12table_traitsEE14transformer_fnC2Ev(ptr noundef nonnull align 8 dereferenceable(8) %5) #3
  store ptr getelementptr inbounds inrange(-16, 24) ({ [5 x ptr] }, ptr @_ZTVN7datalog17tr_infrastructureINS_12table_traitsEE25convenient_transformer_fnE, i32 0, i32 0, i32 2), ptr %5, align 8, !tbaa !13
  %6 = getelementptr inbounds nuw %"class.datalog::tr_infrastructure<datalog::table_traits>::convenient_transformer_fn", ptr %5, i32 0, i32 1
  invoke void @_ZN7datalog15table_signatureC2Ev(ptr noundef nonnull align 8 dereferenceable(12) %6)
          to label %7 unwind label %8

7:                                                ; preds = %1
  ret void

8:                                                ; preds = %1
  %9 = landingpad { ptr, i32 }
          cleanup
  %10 = extractvalue { ptr, i32 } %9, 0
  store ptr %10, ptr %3, align 8
  %11 = extractvalue { ptr, i32 } %9, 1
  store i32 %11, ptr %4, align 4
  call void @_ZN7datalog17tr_infrastructureINS_12table_traitsEE7base_fnD2Ev(ptr noundef nonnull align 8 dereferenceable(8) %5) #3
  br label %12

12:                                               ; preds = %8
  %13 = load ptr, ptr %3, align 8
  %14 = load i32, ptr %4, align 4
  %15 = insertvalue { ptr, i32 } poison, ptr %13, 0
  %16 = insertvalue { ptr, i32 } %15, i32 %14, 1
  resume { ptr, i32 } %16
}

; Function Attrs: mustprogress uwtable
define linkonce_odr hidden void @_ZN7datalog17tr_infrastructureINS_12table_traitsEE21convenient_project_fnC2ERKNS_15table_signatureEjPKj(ptr noundef nonnull align 8 dereferenceable(32) %0, ptr noundef nonnull align 8 dereferenceable(12) %1, i32 noundef %2, ptr noundef %3) unnamed_addr #4 comdat align 2 personality ptr @__gxx_personality_v0 {
  %5 = alloca ptr, align 8
  %6 = alloca ptr, align 8
  %7 = alloca i32, align 4
  %8 = alloca ptr, align 8
  %9 = alloca ptr, align 8
  %10 = alloca i32, align 4
  store ptr %0, ptr %5, align 8, !tbaa !186
  store ptr %1, ptr %6, align 8, !tbaa !27
  store i32 %2, ptr %7, align 4, !tbaa !43
  store ptr %3, ptr %8, align 8, !tbaa !44
  %11 = load ptr, ptr %5, align 8
  call void @_ZN7datalog17tr_infrastructureINS_12table_traitsEE25convenient_transformer_fnC2Ev(ptr noundef nonnull align 8 dereferenceable(24) %11)
  store ptr getelementptr inbounds inrange(-16, 24) ({ [5 x ptr] }, ptr @_ZTVN7datalog17tr_infrastructureINS_12table_traitsEE21convenient_project_fnE, i32 0, i32 0, i32 2), ptr %11, align 8, !tbaa !13
  %12 = getelementptr inbounds nuw %"class.datalog::tr_infrastructure<datalog::table_traits>::convenient_project_fn", ptr %11, i32 0, i32 1
  %13 = load i32, ptr %7, align 4, !tbaa !43
  %14 = load ptr, ptr %8, align 8, !tbaa !44
  invoke void @_ZN7svectorIjjEC2EjPKj(ptr noundef nonnull align 8 dereferenceable(8) %12, i32 noundef %13, ptr noundef %14)
          to label %15 unwind label %22

15:                                               ; preds = %4
  %16 = load ptr, ptr %6, align 8, !tbaa !27
  %17 = load i32, ptr %7, align 4, !tbaa !43
  %18 = load ptr, ptr %8, align 8, !tbaa !44
  %19 = invoke noundef nonnull align 8 dereferenceable(12) ptr @_ZN7datalog17tr_infrastructureINS_12table_traitsEE25convenient_transformer_fn20get_result_signatureEv(ptr noundef nonnull align 8 dereferenceable(24) %11)
          to label %20 unwind label %26

20:                                               ; preds = %15
  invoke void @_ZN7datalog15table_signature12from_projectERKS0_jPKjRS0_(ptr noundef nonnull align 8 dereferenceable(12) %16, i32 noundef %17, ptr noundef %18, ptr noundef nonnull align 8 dereferenceable(12) %19)
          to label %21 unwind label %26

21:                                               ; preds = %20
  ret void

22:                                               ; preds = %4
  %23 = landingpad { ptr, i32 }
          cleanup
  %24 = extractvalue { ptr, i32 } %23, 0
  store ptr %24, ptr %9, align 8
  %25 = extractvalue { ptr, i32 } %23, 1
  store i32 %25, ptr %10, align 4
  br label %30

26:                                               ; preds = %20, %15
  %27 = landingpad { ptr, i32 }
          cleanup
  %28 = extractvalue { ptr, i32 } %27, 0
  store ptr %28, ptr %9, align 8
  %29 = extractvalue { ptr, i32 } %27, 1
  store i32 %29, ptr %10, align 4
  call void @_ZN6vectorIjLb0EjED2Ev(ptr noundef nonnull align 8 dereferenceable(8) %12) #3
  br label %30

30:                                               ; preds = %26, %22
  call void @_ZN7datalog17tr_infrastructureINS_12table_traitsEE25convenient_transformer_fnD2Ev(ptr noundef nonnull align 8 dereferenceable(24) %11) #3
  br label %31

31:                                               ; preds = %30
  %32 = load ptr, ptr %9, align 8
  %33 = load i32, ptr %10, align 4
  %34 = insertvalue { ptr, i32 } poison, ptr %32, 0
  %35 = insertvalue { ptr, i32 } %34, i32 %33, 1
  resume { ptr, i32 } %35
}

; Function Attrs: mustprogress nounwind uwtable
define linkonce_odr hidden noundef nonnull align 8 dereferenceable(32) ptr @_ZNK7datalog17tr_infrastructureINS_12table_traitsEE13base_ancestor10get_pluginEv(ptr noundef nonnull align 8 dereferenceable(36) %0) #7 comdat align 2 {
  %2 = alloca ptr, align 8
  store ptr %0, ptr %2, align 8, !tbaa !46
  %3 = load ptr, ptr %2, align 8
  %4 = getelementptr inbounds nuw %"class.datalog::tr_infrastructure<datalog::table_traits>::base_ancestor", ptr %3, i32 0, i32 1
  %5 = load ptr, ptr %4, align 8, !tbaa !200
  ret ptr %5
}

; Function Attrs: mustprogress uwtable
define linkonce_odr hidden void @_ZN7datalog17lazy_table_plugin10project_fnC2ERKNS_15table_signatureEjPKj(ptr noundef nonnull align 8 dereferenceable(32) %0, ptr noundef nonnull align 8 dereferenceable(12) %1, i32 noundef %2, ptr noundef %3) unnamed_addr #4 comdat align 2 {
  %5 = alloca ptr, align 8
  %6 = alloca ptr, align 8
  %7 = alloca i32, align 4
  %8 = alloca ptr, align 8
  store ptr %0, ptr %5, align 8, !tbaa !52
  store ptr %1, ptr %6, align 8, !tbaa !27
  store i32 %2, ptr %7, align 4, !tbaa !43
  store ptr %3, ptr %8, align 8, !tbaa !44
  %9 = load ptr, ptr %5, align 8
  %10 = load ptr, ptr %6, align 8, !tbaa !27
  %11 = load i32, ptr %7, align 4, !tbaa !43
  %12 = load ptr, ptr %8, align 8, !tbaa !44
  call void @_ZN7datalog17tr_infrastructureINS_12table_traitsEE21convenient_project_fnC2ERKNS_15table_signatureEjPKj(ptr noundef nonnull align 8 dereferenceable(32) %9, ptr noundef nonnull align 8 dereferenceable(12) %10, i32 noundef %11, ptr noundef %12)
  store ptr getelementptr inbounds inrange(-16, 24) ({ [5 x ptr] }, ptr @_ZTVN7datalog17lazy_table_plugin10project_fnE, i32 0, i32 0, i32 2), ptr %9, align 8, !tbaa !13
  ret void
}

; Function Attrs: mustprogress nounwind uwtable
define linkonce_odr hidden noundef nonnull align 8 dereferenceable(12) ptr @_ZNK7datalog17tr_infrastructureINS_12table_traitsEE13base_ancestor13get_signatureEv(ptr noundef nonnull align 8 dereferenceable(36) %0) #7 comdat align 2 {
  %2 = alloca ptr, align 8
  store ptr %0, ptr %2, align 8, !tbaa !46
  %3 = load ptr, ptr %2, align 8
  %4 = getelementptr inbounds nuw %"class.datalog::tr_infrastructure<datalog::table_traits>::base_ancestor", ptr %3, i32 0, i32 2
  ret ptr %4
}

; Function Attrs: mustprogress nounwind uwtable
define linkonce_odr hidden noundef zeroext i1 @_ZNK7datalog17tr_infrastructureINS_12table_traitsEE13plugin_object10check_kindERKNS_10table_baseE(ptr noundef nonnull align 8 dereferenceable(32) %0, ptr noundef nonnull align 8 dereferenceable(36) %1) #7 comdat align 2 {
  %3 = alloca ptr, align 8
  %4 = alloca ptr, align 8
  store ptr %0, ptr %3, align 8, !tbaa !19
  store ptr %1, ptr %4, align 8, !tbaa !37
  %5 = load ptr, ptr %3, align 8
  %6 = load ptr, ptr %4, align 8, !tbaa !37
  %7 = call noundef nonnull align 8 dereferenceable(32) ptr @_ZNK7datalog17tr_infrastructureINS_12table_traitsEE13base_ancestor10get_pluginEv(ptr noundef nonnull align 8 dereferenceable(36) %6)
  %8 = icmp eq ptr %7, %5
  ret i1 %8
}

; Function Attrs: mustprogress uwtable
define hidden noundef ptr @_ZN7datalog17lazy_table_plugin13mk_project_fnERKNS_10table_baseEjPKj(ptr noundef nonnull align 8 dereferenceable(40) %0, ptr noundef nonnull align 8 dereferenceable(36) %1, i32 noundef %2, ptr noundef %3) unnamed_addr #4 align 2 {
  %5 = alloca ptr, align 8
  %6 = alloca ptr, align 8
  %7 = alloca ptr, align 8
  %8 = alloca i32, align 4
  %9 = alloca ptr, align 8
  store ptr %0, ptr %6, align 8, !tbaa !25
  store ptr %1, ptr %7, align 8, !tbaa !37
  store i32 %2, ptr %8, align 4, !tbaa !43
  store ptr %3, ptr %9, align 8, !tbaa !44
  %10 = load ptr, ptr %6, align 8
  %11 = load ptr, ptr %7, align 8, !tbaa !37
  %12 = call noundef zeroext i1 @_ZNK7datalog17tr_infrastructureINS_12table_traitsEE13plugin_object10check_kindERKNS_10table_baseE(ptr noundef nonnull align 8 dereferenceable(32) %10, ptr noundef nonnull align 8 dereferenceable(36) %11)
  br i1 %12, label %13, label %19

13:                                               ; preds = %4
  %14 = call noalias noundef ptr @_ZN6memory8allocateEm(i64 noundef 32)
  %15 = load ptr, ptr %7, align 8, !tbaa !37
  %16 = call noundef nonnull align 8 dereferenceable(12) ptr @_ZNK7datalog17tr_infrastructureINS_12table_traitsEE13base_ancestor13get_signatureEv(ptr noundef nonnull align 8 dereferenceable(36) %15)
  %17 = load i32, ptr %8, align 4, !tbaa !43
  %18 = load ptr, ptr %9, align 8, !tbaa !44
  call void @_ZN7datalog17lazy_table_plugin10project_fnC2ERKNS_15table_signatureEjPKj(ptr noundef nonnull align 8 dereferenceable(32) %14, ptr noundef nonnull align 8 dereferenceable(12) %16, i32 noundef %17, ptr noundef %18)
  store ptr %14, ptr %5, align 8
  br label %20

19:                                               ; preds = %4
  store ptr null, ptr %5, align 8
  br label %20

20:                                               ; preds = %19, %13
  %21 = load ptr, ptr %5, align 8
  ret ptr %21
}