; Function Attrs: mustprogress uwtable
define hidden noundef ptr @_ZN7datalog17lazy_table_plugin13mk_project_fnERKNS_10table_baseEjPKj(ptr noundef nonnull readnone align 8 captures(address) dereferenceable(40) %0, ptr noundef nonnull align 8 dereferenceable(36) %1, i32 noundef %2, ptr noundef %3) unnamed_addr #3 align 2 personality ptr @__gxx_personality_v0 {
  %5 = getelementptr inbounds nuw i8, ptr %1, i64 8
  %6 = load ptr, ptr %5, align 8, !tbaa !59
  %7 = icmp eq ptr %6, %0
  br i1 %7, label %8, label %36

8:                                                ; preds = %4
  %9 = tail call noalias noundef ptr @_ZN6memory8allocateEm(i64 noundef 32)
  %10 = getelementptr inbounds nuw i8, ptr %1, i64 16
  %11 = getelementptr inbounds nuw i8, ptr %9, i64 8
  store ptr null, ptr %11, align 8, !tbaa !39
  %12 = getelementptr inbounds nuw i8, ptr %9, i64 16
  store i32 0, ptr %12, align 8, !tbaa !43
  store ptr getelementptr inbounds nuw inrange(-16, 24) (i8, ptr @_ZTVN7datalog17tr_infrastructureINS_12table_traitsEE21convenient_project_fnE, i64 16), ptr %9, align 8, !tbaa !27
  %13 = getelementptr inbounds nuw i8, ptr %9, i64 24
  store ptr null, ptr %13, align 8, !tbaa !60
  %.not.i.i.i.i = icmp eq i32 %2, 0
  br i1 %.not.i.i.i.i, label %_ZN7svectorIjjEC2EjPKj.exit.i.i, label %.lr.ph.preheader.i.i.i.i

.lr.ph.preheader.i.i.i.i:                         ; preds = %8
  %wide.trip.count.i.i.i.i = zext i32 %2 to i64
  br label %.lr.ph.i.i.i.i

.lr.ph.i.i.i.i:                                   ; preds = %_ZN6vectorIjLb0EjE9push_backERKj.exit.i.i.i.i, %.lr.ph.preheader.i.i.i.i
  %14 = phi ptr [ null, %.lr.ph.preheader.i.i.i.i ], [ %24, %_ZN6vectorIjLb0EjE9push_backERKj.exit.i.i.i.i ]
  %indvars.iv.i.i.i.i = phi i64 [ 0, %.lr.ph.preheader.i.i.i.i ], [ %indvars.iv.next.i.i.i.i, %_ZN6vectorIjLb0EjE9push_backERKj.exit.i.i.i.i ]
  %15 = getelementptr inbounds nuw i32, ptr %3, i64 %indvars.iv.i.i.i.i
  %16 = icmp eq ptr %14, null
  br i1 %16, label %23, label %17

17:                                               ; preds = %.lr.ph.i.i.i.i
  %18 = getelementptr inbounds i8, ptr %14, i64 -4
  %19 = load i32, ptr %18, align 4, !tbaa !42
  %20 = getelementptr inbounds i8, ptr %14, i64 -8
  %21 = load i32, ptr %20, align 4, !tbaa !42
  %22 = icmp eq i32 %19, %21
  br i1 %22, label %23, label %_ZN6vectorIjLb0EjE9push_backERKj.exit.i.i.i.i

23:                                               ; preds = %17, %.lr.ph.i.i.i.i
  invoke void @_ZN6vectorIjLb0EjE13expand_vectorEv(ptr noundef nonnull align 8 dereferenceable(8) %13)
          to label %.noexc.i.i unwind label %31

.noexc.i.i:                                       ; preds = %23
  %.pre.i.i.i.i.i = load ptr, ptr %13, align 8, !tbaa !60
  %.phi.trans.insert.i.i.i.i.i = getelementptr inbounds i8, ptr %.pre.i.i.i.i.i, i64 -4
  %.pre2.i.i.i.i.i = load i32, ptr %.phi.trans.insert.i.i.i.i.i, align 4, !tbaa !42
  br label %_ZN6vectorIjLb0EjE9push_backERKj.exit.i.i.i.i

_ZN6vectorIjLb0EjE9push_backERKj.exit.i.i.i.i:    ; preds = %.noexc.i.i, %17
  %24 = phi ptr [ %.pre.i.i.i.i.i, %.noexc.i.i ], [ %14, %17 ]
  %25 = phi i32 [ %.pre2.i.i.i.i.i, %.noexc.i.i ], [ %19, %17 ]
  %26 = getelementptr inbounds i8, ptr %24, i64 -4
  %27 = zext i32 %25 to i64
  %28 = getelementptr inbounds nuw i32, ptr %24, i64 %27
  %29 = load i32, ptr %15, align 4, !tbaa !42
  store i32 %29, ptr %28, align 4, !tbaa !42
  %30 = add i32 %25, 1
  store i32 %30, ptr %26, align 4, !tbaa !42
  %indvars.iv.next.i.i.i.i = add nuw nsw i64 %indvars.iv.i.i.i.i, 1
  %exitcond.not.i.i.i.i = icmp eq i64 %indvars.iv.next.i.i.i.i, %wide.trip.count.i.i.i.i
  br i1 %exitcond.not.i.i.i.i, label %_ZN7svectorIjjEC2EjPKj.exit.i.i, label %.lr.ph.i.i.i.i, !llvm.loop !63

_ZN7svectorIjjEC2EjPKj.exit.i.i:                  ; preds = %_ZN6vectorIjLb0EjE9push_backERKj.exit.i.i.i.i, %8
  invoke void @_ZN7datalog15table_signature12from_projectERKS0_jPKjRS0_(ptr noundef nonnull align 8 dereferenceable(12) %10, i32 noundef %2, ptr noundef %3, ptr noundef nonnull align 8 dereferenceable(12) %11)
          to label %_ZN7datalog17lazy_table_plugin10project_fnC2ERKNS_15table_signatureEjPKj.exit unwind label %33

31:                                               ; preds = %23
  %32 = landingpad { ptr, i32 }
          cleanup
  br label %35

33:                                               ; preds = %_ZN7svectorIjjEC2EjPKj.exit.i.i
  %34 = landingpad { ptr, i32 }
          cleanup
  tail call void @_ZN6vectorIjLb0EjED2Ev(ptr noundef nonnull align 8 dereferenceable(8) %13) #22
  br label %35

35:                                               ; preds = %33, %31
  %.pn.i.i = phi { ptr, i32 } [ %34, %33 ], [ %32, %31 ]
  tail call void @_ZN7datalog17tr_infrastructureINS_12table_traitsEE25convenient_transformer_fnD2Ev(ptr noundef nonnull align 8 dereferenceable(32) %9) #22
  resume { ptr, i32 } %.pn.i.i

_ZN7datalog17lazy_table_plugin10project_fnC2ERKNS_15table_signatureEjPKj.exit: ; preds = %_ZN7svectorIjjEC2EjPKj.exit.i.i
  store ptr getelementptr inbounds nuw inrange(-16, 24) (i8, ptr @_ZTVN7datalog17lazy_table_plugin10project_fnE, i64 16), ptr %9, align 8, !tbaa !27
  br label %36

36:                                               ; preds = %4, %_ZN7datalog17lazy_table_plugin10project_fnC2ERKNS_15table_signatureEjPKj.exit
  %.0 = phi ptr [ %9, %_ZN7datalog17lazy_table_plugin10project_fnC2ERKNS_15table_signatureEjPKj.exit ], [ null, %4 ]
  ret ptr %.0
}